target datalayout = "e-m:e-p270:32:32-p271:32:32-p272:64:64-i64:64-i128:128-f80:128-n8:16:32:64-S128"
target triple = "x86_64-pc-linux-gnu"

%"class.std::basic_string_view" = type { i64, ptr }
%"struct.toml::v3::time" = type { i8, i8, i8, i32 }
%"struct.toml::v3::source_position" = type { i32, i32 }
%"struct.toml::v3::source_region" = type { %"struct.toml::v3::source_position", %"struct.toml::v3::source_position", %"class.std::shared_ptr" }
%"class.std::shared_ptr" = type { %"class.std::__shared_ptr" }
%"class.std::__shared_ptr" = type { ptr, %"class.std::__shared_count" }
%"class.std::__shared_count" = type { ptr }
%"struct.toml::v3::impl::formatter_config" = type { i64, %"class.std::basic_string_view" }
%"class.toml::v3::node" = type { ptr, %"struct.toml::v3::source_region" }
%"class.toml::v3::impl::formatter" = type <{ ptr, ptr, %"struct.toml::v3::impl::formatter_config", i64, i64, ptr, i32, i8, [3 x i8] }>
%"class.toml::v3::value.19" = type <{ %"class.toml::v3::node", %"struct.toml::v3::time", i16, [6 x i8] }>

; Function Attrs: mustprogress uwtable
define void @_ZN4toml2v34impl15print_to_streamERSoc(ptr noundef nonnull align 8 dereferenceable(8) %0, i8 noundef signext %1) #0 {
  %3 = alloca ptr, align 8
  %4 = alloca i8, align 1
  store ptr %0, ptr %3, align 8, !tbaa !3
  store i8 %1, ptr %4, align 1, !tbaa !22
  %5 = load ptr, ptr %3, align 8, !tbaa !3
  %6 = load i8, ptr %4, align 1, !tbaa !22
  %7 = call noundef nonnull align 8 dereferenceable(8) ptr @_ZNSo3putEc(ptr noundef nonnull align 8 dereferenceable(8) %5, i8 noundef signext %6)
  ret void
}

; Function Attrs: inlinehint mustprogress uwtable
define linkonce_odr void @_ZN4toml2v34impl25print_to_stream_bookendedINS0_4timeEcEEvRSoRKT_RKT0_(ptr noundef nonnull align 8 dereferenceable(8) %0, ptr noundef nonnull align 4 dereferenceable(8) %1, ptr noundef nonnull align 1 dereferenceable(1) %2) #12 comdat {
  %4 = alloca ptr, align 8
  %5 = alloca ptr, align 8
  %6 = alloca ptr, align 8
  store ptr %0, ptr %4, align 8, !tbaa !3
  store ptr %1, ptr %5, align 8, !tbaa !81
  store ptr %2, ptr %6, align 8, !tbaa !8
  %7 = load ptr, ptr %4, align 8, !tbaa !3
  %8 = load ptr, ptr %6, align 8, !tbaa !8
  %9 = load i8, ptr %8, align 1, !tbaa !22
  call void @_ZN4toml2v34impl15print_to_streamERSoc(ptr noundef nonnull align 8 dereferenceable(8) %7, i8 noundef signext %9)
  %10 = load ptr, ptr %4, align 8, !tbaa !3
  %11 = load ptr, ptr %5, align 8, !tbaa !81
  call void @_ZN4toml2v34impl15print_to_streamERSoRKNS0_4timeE(ptr noundef nonnull align 8 dereferenceable(8) %10, ptr noundef nonnull align 4 dereferenceable(8) %11)
  %12 = load ptr, ptr %4, align 8, !tbaa !3
  %13 = load ptr, ptr %6, align 8, !tbaa !8
  %14 = load i8, ptr %13, align 1, !tbaa !22
  call void @_ZN4toml2v34impl15print_to_streamERSoc(ptr noundef nonnull align 8 dereferenceable(8) %12, i8 noundef signext %14)
  ret void
}

; Function Attrs: alwaysinline mustprogress nounwind willreturn memory(read) uwtable
define linkonce_odr noundef zeroext i1 @_ZNK4toml2v34impl9formatter23literal_strings_allowedEv(ptr noundef nonnull align 8 dereferenceable(69) %0) #5 comdat align 2 {
  %2 = alloca ptr, align 8
  store ptr %0, ptr %2, align 8, !tbaa !374
  %3 = load ptr, ptr %2, align 8
  %4 = getelementptr inbounds nuw %"class.toml::v3::impl::formatter", ptr %3, i32 0, i32 2
  %5 = getelementptr inbounds nuw %"struct.toml::v3::impl::formatter_config", ptr %4, i32 0, i32 0
  %6 = load i64, ptr %5, align 8, !tbaa !382
  %7 = call noundef i64 @_ZN4toml2v3anENS0_12format_flagsES1_(i64 noundef %6, i64 noundef 4) #38
  %8 = call noundef zeroext i1 @_ZN4toml2v3ntENS0_12format_flagsE(i64 noundef %7) #38
  %9 = xor i1 %8, true
  ret i1 %9
}

; Function Attrs: alwaysinline mustprogress nounwind willreturn memory(read) uwtable
define linkonce_odr noundef nonnull align 4 dereferenceable(8) ptr @_ZNKR4toml2v35valueINS0_4timeEEdeEv(ptr noundef nonnull align 8 dereferenceable(50) %0) #5 comdat align 2 {
  %2 = alloca ptr, align 8
  store ptr %0, ptr %2, align 8, !tbaa !144
  %3 = load ptr, ptr %2, align 8
  %4 = getelementptr inbounds nuw %"class.toml::v3::value.19", ptr %3, i32 0, i32 1
  ret ptr %4
}

; Function Attrs: alwaysinline mustprogress nounwind willreturn memory(none) uwtable
define linkonce_odr noundef zeroext i1 @_ZN4toml2v3ntENS0_12format_flagsE(i64 noundef %0) #23 comdat {
  %2 = alloca i64, align 8
  store i64 %0, ptr %2, align 8, !tbaa !118
  %3 = load i64, ptr %2, align 8, !tbaa !118
  %4 = icmp ne i64 %3, 0
  %5 = xor i1 %4, true
  ret i1 %5
}

; Function Attrs: alwaysinline mustprogress nounwind willreturn memory(none) uwtable
define linkonce_odr noundef i64 @_ZN4toml2v3anENS0_12format_flagsES1_(i64 noundef %0, i64 noundef %1) #23 comdat {
  %3 = alloca i64, align 8
  %4 = alloca i64, align 8
  store i64 %0, ptr %3, align 8, !tbaa !118
  store i64 %1, ptr %4, align 8, !tbaa !118
  %5 = load i64, ptr %3, align 8, !tbaa !118
  %6 = load i64, ptr %4, align 8, !tbaa !118
  %7 = and i64 %5, %6
  ret i64 %7
}

; Function Attrs: mustprogress uwtable
define void @_ZN4toml2v34impl9formatter5printERKNS0_5valueINS0_4timeEEE(ptr noundef nonnull align 8 dereferenceable(69) %0, ptr noundef nonnull align 8 dereferenceable(50) %1) #0 align 2 {
  %3 = alloca ptr, align 8
  %4 = alloca ptr, align 8
  %5 = alloca i8, align 1
  store ptr %0, ptr %3, align 8, !tbaa !374
  store ptr %1, ptr %4, align 8, !tbaa !144
  %6 = load ptr, ptr %3, align 8
  %7 = getelementptr inbounds nuw %"class.toml::v3::impl::formatter", ptr %6, i32 0, i32 2
  %8 = getelementptr inbounds nuw %"struct.toml::v3::impl::formatter_config", ptr %7, i32 0, i32 0
  %9 = load i64, ptr %8, align 8, !tbaa !382
  %10 = call noundef i64 @_ZN4toml2v3anENS0_12format_flagsES1_(i64 noundef %9, i64 noundef 1) #38
  %11 = call noundef zeroext i1 @_ZN4toml2v3ntENS0_12format_flagsE(i64 noundef %10) #38
  br i1 %11, label %19, label %12

12:                                               ; preds = %2
  %13 = getelementptr inbounds nuw %"class.toml::v3::impl::formatter", ptr %6, i32 0, i32 5
  %14 = load ptr, ptr %13, align 8, !tbaa !390
  %15 = load ptr, ptr %4, align 8, !tbaa !144
  %16 = call noundef nonnull align 4 dereferenceable(8) ptr @_ZNKR4toml2v35valueINS0_4timeEEdeEv(ptr noundef nonnull align 8 dereferenceable(50) %15) #37
  call void @llvm.lifetime.start.p0(i64 1, ptr %5) #36
  %17 = call noundef zeroext i1 @_ZNK4toml2v34impl9formatter23literal_strings_allowedEv(ptr noundef nonnull align 8 dereferenceable(69) %6) #37
  %18 = select i1 %17, i8 39, i8 34
  store i8 %18, ptr %5, align 1, !tbaa !22
  call void @_ZN4toml2v34impl25print_to_stream_bookendedINS0_4timeEcEEvRSoRKT_RKT0_(ptr noundef nonnull align 8 dereferenceable(8) %14, ptr noundef nonnull align 4 dereferenceable(8) %16, ptr noundef nonnull align 1 dereferenceable(1) %5)
  call void @llvm.lifetime.end.p0(i64 1, ptr %5) #36
  br label %24

19:                                               ; preds = %2
  %20 = getelementptr inbounds nuw %"class.toml::v3::impl::formatter", ptr %6, i32 0, i32 5
  %21 = load ptr, ptr %20, align 8, !tbaa !390
  %22 = load ptr, ptr %4, align 8, !tbaa !144
  %23 = call noundef nonnull align 4 dereferenceable(8) ptr @_ZNKR4toml2v35valueINS0_4timeEEdeEv(ptr noundef nonnull align 8 dereferenceable(50) %22) #37
  call void @_ZN4toml2v34impl15print_to_streamERSoRKNS0_4timeE(ptr noundef nonnull align 8 dereferenceable(8) %21, ptr noundef nonnull align 4 dereferenceable(8) %23)
  br label %24

24:                                               ; preds = %19, %12
  %25 = getelementptr inbounds nuw %"class.toml::v3::impl::formatter", ptr %6, i32 0, i32 7
  store i8 0, ptr %25, align 4, !tbaa !389
  ret void
}