; Function Attrs: mustprogress uwtable
define void @_ZN4toml2v34impl9formatter5printERKNS0_5valueINS0_4timeEEE(ptr noundef nonnull align 8 captures(none) dereferenceable(69) initializes((68, 69)) %0, ptr noundef nonnull readonly align 8 captures(none) dereferenceable(50) %1) local_unnamed_addr #0 align 2 {
  %3 = getelementptr inbounds nuw i8, ptr %0, i64 16
  %4 = load i64, ptr %3, align 8, !tbaa !116
  %5 = and i64 %4, 1
  %.not.i3 = icmp eq i64 %5, 0
  %6 = getelementptr inbounds nuw i8, ptr %0, i64 56
  %7 = load ptr, ptr %6, align 8, !tbaa !121
  %8 = getelementptr inbounds nuw i8, ptr %1, i64 40
  br i1 %.not.i3, label %14, label %9

9:                                                ; preds = %2
  %10 = and i64 %4, 4
  %.not.i.not = icmp eq i64 %10, 0
  %11 = select i1 %.not.i.not, i8 34, i8 39
  %12 = tail call noundef nonnull align 8 dereferenceable(8) ptr @_ZNSo3putEc(ptr noundef nonnull align 8 dereferenceable(8) %7, i8 noundef signext %11)
  tail call void @_ZN4toml2v34impl15print_to_streamERSoRKNS0_4timeE(ptr noundef nonnull align 8 dereferenceable(8) %7, ptr noundef nonnull align 4 dereferenceable(8) %8)
  %13 = tail call noundef nonnull align 8 dereferenceable(8) ptr @_ZNSo3putEc(ptr noundef nonnull align 8 dereferenceable(8) %7, i8 noundef signext %11)
  br label %15

14:                                               ; preds = %2
  tail call void @_ZN4toml2v34impl15print_to_streamERSoRKNS0_4timeE(ptr noundef nonnull align 8 dereferenceable(8) %7, ptr noundef nonnull align 4 dereferenceable(8) %8)
  br label %15

15:                                               ; preds = %14, %9
  %16 = getelementptr inbounds nuw i8, ptr %0, i64 68
  store i8 0, ptr %16, align 4, !tbaa !120
  ret void
}